; Function Attrs: nounwind uwtable
define internal fastcc zeroext i1 @Next_Choice(ptr noundef readonly %0, ptr noundef %1, ptr noundef %2) unnamed_addr #0 {
  %.not20 = icmp eq ptr %0, null
  br i1 %.not20, label %.loopexit, label %.lr.ph

.lr.ph:                                           ; preds = %3, %tailrecurse
  %.tr1722 = phi ptr [ %17, %tailrecurse ], [ %2, %3 ]
  %.tr21 = phi ptr [ %15, %tailrecurse ], [ %0, %3 ]
  %4 = load i16, ptr %.tr21, align 8, !tbaa !68
  %5 = zext i16 %4 to i32
  %6 = and i32 %5, 4
  %.not14 = icmp eq i32 %6, 0
  br i1 %.not14, label %.loopexit, label %7

7:                                                ; preds = %.lr.ph
  %8 = and i32 %5, 1
  %.not15 = icmp eq i32 %8, 0
  br i1 %.not15, label %18, label %9

9:                                                ; preds = %7
  %10 = getelementptr inbounds nuw i8, ptr %.tr21, i64 16
  %11 = load ptr, ptr %10, align 8, !tbaa !71
  %12 = load ptr, ptr %.tr1722, align 8, !tbaa !72
  %13 = tail call fastcc zeroext i1 @Next_Choice(ptr noundef %11, ptr noundef %1, ptr noundef %12)
  br i1 %13, label %.loopexit, label %tailrecurse

tailrecurse:                                      ; preds = %9
  %14 = getelementptr inbounds nuw i8, ptr %.tr21, i64 24
  %15 = load ptr, ptr %14, align 8, !tbaa !75
  %16 = getelementptr inbounds nuw i8, ptr %.tr1722, i64 8
  %17 = load ptr, ptr %16, align 8, !tbaa !76
  %.not = icmp eq ptr %15, null
  br i1 %.not, label %.loopexit, label %.lr.ph

18:                                               ; preds = %7
  %19 = getelementptr inbounds nuw i8, ptr %.tr21, i64 72
  %20 = load ptr, ptr %19, align 8, !tbaa !122
  %21 = tail call zeroext i1 %20(ptr noundef %1, ptr noundef %.tr1722) #13
  br label %.loopexit

.loopexit:                                        ; preds = %.lr.ph, %tailrecurse, %9, %3, %18
  %.0 = phi i1 [ %21, %18 ], [ false, %3 ], [ false, %.lr.ph ], [ false, %tailrecurse ], [ true, %9 ]
  ret i1 %.0
}